; Function Attrs: nounwind uwtable
define ptr @WebPDecodeRGBInto(ptr noundef %0, i64 noundef %1, ptr noundef %2, i64 noundef %3, i32 noundef %4) local_unnamed_addr #0 {
  %6 = alloca %struct.WebPDecParams, align 8
  %7 = alloca %struct.WebPDecBuffer, align 8
  call void @llvm.lifetime.start.p0(i64 112, ptr nonnull %6) #10
  call void @llvm.lifetime.start.p0(i64 120, ptr nonnull %7) #10
  %8 = icmp eq ptr %2, null
  br i1 %8, label %DecodeIntoRGBABuffer.exit, label %9

9:                                                ; preds = %5
  %10 = call i32 @WebPInitDecBufferInternal(ptr noundef nonnull %7, i32 noundef 528) #10
  %.not.i = icmp eq i32 %10, 0
  br i1 %.not.i, label %DecodeIntoRGBABuffer.exit, label %11

11:                                               ; preds = %9
  %12 = getelementptr inbounds nuw i8, ptr %6, i64 8
  call void @llvm.memset.p0.i64(ptr noundef nonnull align 8 dereferenceable(112) %12, i8 0, i64 104, i1 false)
  store ptr %7, ptr %6, align 8, !tbaa !23
  store i32 0, ptr %7, align 8, !tbaa !28
  %13 = getelementptr inbounds nuw i8, ptr %7, i64 16
  store ptr %2, ptr %13, align 8, !tbaa !16
  %14 = getelementptr inbounds nuw i8, ptr %7, i64 24
  store i32 %4, ptr %14, align 8, !tbaa !16
  %15 = getelementptr inbounds nuw i8, ptr %7, i64 32
  store i64 %3, ptr %15, align 8, !tbaa !16
  %16 = getelementptr inbounds nuw i8, ptr %7, i64 12
  store i32 1, ptr %16, align 4, !tbaa !30
  %17 = call fastcc i32 @DecodeInto(ptr noundef %0, i64 noundef %1, ptr noundef %6)
  %.not9.i = icmp eq i32 %17, 0
  %..i = select i1 %.not9.i, ptr %2, ptr null
  br label %DecodeIntoRGBABuffer.exit

DecodeIntoRGBABuffer.exit:                        ; preds = %5, %9, %11
  %.0.i = phi ptr [ null, %9 ], [ null, %5 ], [ %..i, %11 ]
  call void @llvm.lifetime.end.p0(i64 120, ptr nonnull %7) #10
  call void @llvm.lifetime.end.p0(i64 112, ptr nonnull %6) #10
  ret ptr %.0.i
}